target datalayout = "e-m:e-p270:32:32-p271:32:32-p272:64:64-i64:64-i128:128-f80:128-n8:16:32:64-S128"
target triple = "x86_64-pc-linux-gnu"

%"class.clang::SourceLocation" = type { i32 }
%"class.clang::CXXScopeSpec" = type { %"class.clang::SourceRange", %"class.clang::NestedNameSpecifierLocBuilder", %"class.llvm::ArrayRef" }
%"class.clang::SourceRange" = type { %"class.clang::SourceLocation", %"class.clang::SourceLocation" }
%"class.clang::NestedNameSpecifierLocBuilder" = type { ptr, ptr, i32, i32 }
%"class.llvm::ArrayRef" = type { ptr, i64 }
%"class.clang::ParsedAttributesView" = type { %"class.clang::SourceRange", %"class.llvm::SmallVector.342" }
%"class.llvm::SmallVector.342" = type { %"class.llvm::SmallVectorImpl.343", %"struct.llvm::SmallVectorStorage.346" }
%"class.llvm::SmallVectorImpl.343" = type { %"class.llvm::SmallVectorTemplateBase.344" }
%"class.llvm::SmallVectorTemplateBase.344" = type { %"class.llvm::SmallVectorTemplateCommon.345" }
%"class.llvm::SmallVectorTemplateCommon.345" = type { %"class.llvm::SmallVectorBase" }
%"class.llvm::SmallVectorBase" = type { ptr, i32, i32 }
%"struct.llvm::SmallVectorStorage.346" = type { [48 x i8] }
%"struct.clang::UnionOpaquePtr" = type { ptr }
%"class.clang::ParsedAttributes" = type { %"class.clang::ParsedAttributesView", %"class.clang::AttributePool" }
%"class.clang::AttributePool" = type { ptr, %"class.llvm::SmallVector.342" }
%"class.clang::DeclSpec" = type { i64, %union.anon.349, ptr, %"class.clang::ExplicitSpecifier", %"class.clang::ParsedAttributes", %"class.clang::CXXScopeSpec", %"class.clang::SourceRange", %"class.clang::SourceLocation", %"class.clang::SourceLocation", %"class.clang::SourceRange", %"class.clang::SourceLocation", %"class.clang::SourceLocation", %"class.clang::SourceLocation", %"class.clang::SourceLocation", %"class.clang::SourceLocation", %"class.clang::SourceLocation", %"class.clang::SourceLocation", %"class.clang::SourceRange", %"class.clang::SourceLocation", %"class.clang::SourceLocation", %"class.clang::SourceLocation", %"class.clang::SourceLocation", %"class.clang::SourceLocation", %"class.clang::SourceLocation", %"class.clang::SourceLocation", %"class.clang::SourceLocation", %"class.clang::SourceLocation", %"class.clang::SourceLocation", %"class.clang::SourceLocation", %"class.clang::SourceLocation", %"class.clang::SourceLocation", %"class.clang::SourceLocation", %"class.clang::SourceLocation", %"struct.clang::WrittenBuiltinSpecs", ptr }
%union.anon.349 = type { %"struct.clang::UnionOpaquePtr" }
%"class.clang::ExplicitSpecifier" = type { %"class.llvm::PointerIntPair.350" }
%"class.llvm::PointerIntPair.350" = type { %"struct.llvm::detail::PunnedPointer.351" }
%"struct.llvm::detail::PunnedPointer.351" = type { [8 x i8] }
%"struct.clang::WrittenBuiltinSpecs" = type { i16, [2 x i8] }

@.str.4 = private unnamed_addr constant [12 x i8] c"unspecified\00", align 1
@.str.20 = private unnamed_addr constant [7 x i8] c"signed\00", align 1
@.str.21 = private unnamed_addr constant [9 x i8] c"unsigned\00", align 1

; Function Attrs: mustprogress nounwind uwtable
define dso_local noundef ptr @_ZN5clang8DeclSpec16getSpecifierNameENS_17TypeSpecifierSignE(i32 noundef %0) #0 align 2 {
  %2 = alloca ptr, align 8
  %3 = alloca i32, align 4
  store i32 %0, ptr %3, align 4
  %4 = load i32, ptr %3, align 4
  switch i32 %4, label %8 [
    i32 0, label %5
    i32 1, label %6
    i32 2, label %7
  ]

5:                                                ; preds = %1
  store ptr @.str.4, ptr %2, align 8
  br label %9

6:                                                ; preds = %1
  store ptr @.str.20, ptr %2, align 8
  br label %9

7:                                                ; preds = %1
  store ptr @.str.21, ptr %2, align 8
  br label %9

8:                                                ; preds = %1
  unreachable

9:                                                ; preds = %7, %6, %5
  %10 = load ptr, ptr %2, align 8
  ret ptr %10
}

; Function Attrs: mustprogress nounwind uwtable
define internal noundef zeroext i1 @_ZL12BadSpecifierIN5clang17TypeSpecifierSignEEbT_S2_RPKcRjb(i32 noundef %0, i32 noundef %1, ptr noundef nonnull align 8 dereferenceable(8) %2, ptr noundef nonnull align 4 dereferenceable(4) %3, i1 noundef zeroext %4) #0 {
  %6 = alloca i32, align 4
  %7 = alloca i32, align 4
  %8 = alloca ptr, align 8
  %9 = alloca ptr, align 8
  %10 = alloca i8, align 1
  store i32 %0, ptr %6, align 4
  store i32 %1, ptr %7, align 4
  store ptr %2, ptr %8, align 8
  store ptr %3, ptr %9, align 8
  %11 = zext i1 %4 to i8
  store i8 %11, ptr %10, align 1
  %12 = load i32, ptr %7, align 4
  %13 = call noundef ptr @_ZN5clang8DeclSpec16getSpecifierNameENS_17TypeSpecifierSignE(i32 noundef %12)
  %14 = load ptr, ptr %8, align 8
  store ptr %13, ptr %14, align 8
  %15 = load i32, ptr %6, align 4
  %16 = load i32, ptr %7, align 4
  %17 = icmp ne i32 %15, %16
  br i1 %17, label %18, label %20

18:                                               ; preds = %5
  %19 = load ptr, ptr %9, align 8
  store i32 3693, ptr %19, align 4
  br label %25

20:                                               ; preds = %5
  %21 = load i8, ptr %10, align 1
  %22 = trunc i8 %21 to i1
  %23 = select i1 %22, i32 99, i32 141
  %24 = load ptr, ptr %9, align 8
  store i32 %23, ptr %24, align 4
  br label %25

25:                                               ; preds = %20, %18
  ret i1 true
}

; Function Attrs: mustprogress nounwind uwtable
define linkonce_odr hidden noundef i32 @_ZNK5clang8DeclSpec15getTypeSpecSignEv(ptr noundef nonnull align 8 dereferenceable(360) %0) #0 comdat align 2 {
  %2 = alloca ptr, align 8
  store ptr %0, ptr %2, align 8
  %3 = load ptr, ptr %2, align 8
  %4 = load i64, ptr %3, align 8
  %5 = lshr i64 %4, 10
  %6 = and i64 %5, 3
  %7 = trunc i64 %6 to i32
  ret i32 %7
}

; Function Attrs: mustprogress nounwind uwtable
define dso_local noundef zeroext i1 @_ZN5clang8DeclSpec15SetTypeSpecSignENS_17TypeSpecifierSignENS_14SourceLocationERPKcRj(ptr noundef nonnull align 8 dereferenceable(360) %0, i32 noundef %1, i32 %2, ptr noundef nonnull align 8 dereferenceable(8) %3, ptr noundef nonnull align 4 dereferenceable(4) %4) #0 align 2 {
  %6 = alloca i1, align 1
  %7 = alloca %"class.clang::SourceLocation", align 4
  %8 = alloca ptr, align 8
  %9 = alloca i32, align 4
  %10 = alloca ptr, align 8
  %11 = alloca ptr, align 8
  %12 = getelementptr inbounds nuw %"class.clang::SourceLocation", ptr %7, i32 0, i32 0
  store i32 %2, ptr %12, align 4
  store ptr %0, ptr %8, align 8
  store i32 %1, ptr %9, align 4
  store ptr %3, ptr %10, align 8
  store ptr %4, ptr %11, align 8
  %13 = load ptr, ptr %8, align 8
  %14 = call noundef i32 @_ZNK5clang8DeclSpec15getTypeSpecSignEv(ptr noundef nonnull align 8 dereferenceable(360) %13)
  %15 = icmp ne i32 %14, 0
  br i1 %15, label %16, label %22

16:                                               ; preds = %5
  %17 = load i32, ptr %9, align 4
  %18 = call noundef i32 @_ZNK5clang8DeclSpec15getTypeSpecSignEv(ptr noundef nonnull align 8 dereferenceable(360) %13)
  %19 = load ptr, ptr %10, align 8
  %20 = load ptr, ptr %11, align 8
  %21 = call noundef zeroext i1 @_ZL12BadSpecifierIN5clang17TypeSpecifierSignEEbT_S2_RPKcRjb(i32 noundef %17, i32 noundef %18, ptr noundef nonnull align 8 dereferenceable(8) %19, ptr noundef nonnull align 4 dereferenceable(4) %20, i1 noundef zeroext true)
  store i1 %21, ptr %6, align 1
  br label %31

22:                                               ; preds = %5
  %23 = load i32, ptr %9, align 4
  %24 = zext i32 %23 to i64
  %25 = load i64, ptr %13, align 8
  %26 = and i64 %24, 3
  %27 = shl i64 %26, 10
  %28 = and i64 %25, -3073
  %29 = or i64 %28, %27
  store i64 %29, ptr %13, align 8
  %30 = getelementptr inbounds nuw %"class.clang::DeclSpec", ptr %13, i32 0, i32 11
  call void @llvm.memcpy.p0.p0.i64(ptr align 4 %30, ptr align 4 %7, i64 4, i1 false)
  store i1 false, ptr %6, align 1
  br label %31

31:                                               ; preds = %22, %16
  %32 = load i1, ptr %6, align 1
  ret i1 %32
}