; Function Attrs: mustprogress nofree norecurse nosync nounwind willreturn memory(argmem: readwrite) uwtable
define dso_local noundef zeroext i1 @_ZN5clang8DeclSpec15SetTypeSpecSignENS_17TypeSpecifierSignENS_14SourceLocationERPKcRj(ptr nocapture noundef nonnull align 8 dereferenceable(360) %0, i32 noundef %1, i32 %2, ptr nocapture noundef nonnull writeonly align 8 dereferenceable(8) %3, ptr nocapture noundef nonnull writeonly align 4 dereferenceable(4) %4) local_unnamed_addr #0 align 2 {
  %6 = load i64, ptr %0, align 8
  %7 = trunc i64 %6 to i32
  %8 = lshr i32 %7, 10
  %9 = and i32 %8, 3
  %.not = icmp ne i32 %9, 0
  br i1 %.not, label %_ZL12BadSpecifierIN5clang17TypeSpecifierSignEEbT_S2_RPKcRjb.exit, label %10

_ZL12BadSpecifierIN5clang17TypeSpecifierSignEEbT_S2_RPKcRjb.exit: ; preds = %5
  %switch = icmp eq i32 %9, 2
  %.str.21..str.20 = select i1 %switch, ptr @.str.21, ptr @.str.20
  store ptr %.str.21..str.20, ptr %3, align 8
  %.not.i = icmp eq i32 %1, %9
  %..i = select i1 %.not.i, i32 99, i32 3693
  store i32 %..i, ptr %4, align 4
  br label %17

10:                                               ; preds = %5
  %11 = shl i32 %1, 10
  %12 = and i32 %11, 3072
  %13 = zext nneg i32 %12 to i64
  %14 = and i64 %6, -3073
  %15 = or disjoint i64 %14, %13
  store i64 %15, ptr %0, align 8
  %16 = getelementptr inbounds nuw i8, ptr %0, i64 252
  store i32 %2, ptr %16, align 4
  br label %17

17:                                               ; preds = %10, %_ZL12BadSpecifierIN5clang17TypeSpecifierSignEEbT_S2_RPKcRjb.exit
  ret i1 %.not
}